target datalayout = "e-m:e-p270:32:32-p271:32:32-p272:64:64-i64:64-i128:128-f80:128-n8:16:32:64-S128"
target triple = "x86_64-pc-linux-gnu"

%struct.__jmp_buf_tag = type { [8 x i64], i32, %struct.__sigset_t }
%struct.__sigset_t = type { [16 x i64] }

@fp_unity_launcher_entry_get_for_desktop_file = internal global ptr null, align 8
@fp_unity_launcher_entry_set_count = internal global ptr null, align 8
@fp_unity_launcher_entry_set_count_visible = internal global ptr null, align 8
@fp_unity_launcher_entry_get_quicklist = internal global ptr null, align 8
@fp_unity_launcher_entry_set_quicklist = internal global ptr null, align 8
@fp_unity_launcher_entry_set_urgent = internal global ptr null, align 8
@fp_unity_launcher_entry_set_progress = internal global ptr null, align 8
@fp_unity_launcher_entry_set_progress_visible = internal global ptr null, align 8
@fp_dbusmenu_menuitem_new = internal global ptr null, align 8
@fp_dbusmenu_menuitem_property_set = internal global ptr null, align 8
@fp_dbusmenu_menuitem_child_append = internal global ptr null, align 8
@fp_dbusmenu_menuitem_take_children = internal global ptr null, align 8
@.str.10 = private unnamed_addr constant [14 x i8] c"libunity.so.9\00", align 1
@unity_libhandle = internal global ptr null, align 8
@.str.11 = private unnamed_addr constant [12 x i8] c"libunity.so\00", align 1
@j = internal global [1 x %struct.__jmp_buf_tag] zeroinitializer, align 16
@.str.12 = private unnamed_addr constant [42 x i8] c"unity_launcher_entry_get_for_desktop_file\00", align 1
@.str.13 = private unnamed_addr constant [31 x i8] c"unity_launcher_entry_set_count\00", align 1
@.str.14 = private unnamed_addr constant [39 x i8] c"unity_launcher_entry_set_count_visible\00", align 1
@.str.15 = private unnamed_addr constant [32 x i8] c"unity_launcher_entry_set_urgent\00", align 1
@.str.16 = private unnamed_addr constant [34 x i8] c"unity_launcher_entry_set_progress\00", align 1
@.str.17 = private unnamed_addr constant [42 x i8] c"unity_launcher_entry_set_progress_visible\00", align 1
@.str.18 = private unnamed_addr constant [22 x i8] c"dbusmenu_menuitem_new\00", align 1
@.str.19 = private unnamed_addr constant [31 x i8] c"dbusmenu_menuitem_property_set\00", align 1
@.str.20 = private unnamed_addr constant [35 x i8] c"dbusmenu_menuitem_property_set_int\00", align 1
@fp_dbusmenu_menuitem_property_set_int = internal global ptr null, align 8
@.str.21 = private unnamed_addr constant [35 x i8] c"dbusmenu_menuitem_property_get_int\00", align 1
@fp_dbusmenu_menuitem_property_get_int = internal global ptr null, align 8
@.str.22 = private unnamed_addr constant [31 x i8] c"dbusmenu_menuitem_child_append\00", align 1
@.str.23 = private unnamed_addr constant [31 x i8] c"dbusmenu_menuitem_child_delete\00", align 1
@fp_dbusmenu_menuitem_child_delete = internal global ptr null, align 8
@.str.24 = private unnamed_addr constant [32 x i8] c"dbusmenu_menuitem_take_children\00", align 1
@.str.25 = private unnamed_addr constant [26 x i8] c"dbusmenu_menuitem_foreach\00", align 1
@fp_dbusmenu_menuitem_foreach = internal global ptr null, align 8
@.str.26 = private unnamed_addr constant [35 x i8] c"unity_launcher_entry_set_quicklist\00", align 1
@.str.27 = private unnamed_addr constant [35 x i8] c"unity_launcher_entry_get_quicklist\00", align 1

; Function Attrs: nounwind uwtable
define internal ptr @dl_symbol(ptr noundef %0) #0 {
  %2 = alloca ptr, align 8
  %3 = alloca ptr, align 8
  store ptr %0, ptr %2, align 8
  %4 = load ptr, ptr @unity_libhandle, align 8
  %5 = load ptr, ptr %2, align 8
  %6 = call ptr @dlsym(ptr noundef %4, ptr noundef %5) #7
  store ptr %6, ptr %3, align 8
  %7 = load ptr, ptr %3, align 8
  %8 = icmp ne ptr %7, null
  br i1 %8, label %10, label %9

9:                                                ; preds = %1
  call void @longjmp(ptr noundef @j, i32 noundef 1) #9
  unreachable

10:                                               ; preds = %1
  %11 = load ptr, ptr %3, align 8
  ret ptr %11
}

; Function Attrs: nounwind uwtable
define internal i32 @unity_load() #0 {
  %1 = alloca i32, align 4
  %2 = call ptr @dlopen(ptr noundef @.str.10, i32 noundef 1) #7
  store ptr %2, ptr @unity_libhandle, align 8
  %3 = load ptr, ptr @unity_libhandle, align 8
  %4 = icmp eq ptr %3, null
  br i1 %4, label %5, label %11

5:                                                ; preds = %0
  %6 = call ptr @dlopen(ptr noundef @.str.11, i32 noundef 1) #7
  store ptr %6, ptr @unity_libhandle, align 8
  %7 = load ptr, ptr @unity_libhandle, align 8
  %8 = icmp eq ptr %7, null
  br i1 %8, label %9, label %10

9:                                                ; preds = %5
  store i32 0, ptr %1, align 4
  br label %36

10:                                               ; preds = %5
  br label %11

11:                                               ; preds = %10, %0
  %12 = call i32 @_setjmp(ptr noundef @j) #8
  %13 = icmp eq i32 %12, 0
  br i1 %13, label %14, label %32

14:                                               ; preds = %11
  %15 = call ptr @dl_symbol(ptr noundef @.str.12)
  store ptr %15, ptr @fp_unity_launcher_entry_get_for_desktop_file, align 8
  %16 = call ptr @dl_symbol(ptr noundef @.str.13)
  store ptr %16, ptr @fp_unity_launcher_entry_set_count, align 8
  %17 = call ptr @dl_symbol(ptr noundef @.str.14)
  store ptr %17, ptr @fp_unity_launcher_entry_set_count_visible, align 8
  %18 = call ptr @dl_symbol(ptr noundef @.str.15)
  store ptr %18, ptr @fp_unity_launcher_entry_set_urgent, align 8
  %19 = call ptr @dl_symbol(ptr noundef @.str.16)
  store ptr %19, ptr @fp_unity_launcher_entry_set_progress, align 8
  %20 = call ptr @dl_symbol(ptr noundef @.str.17)
  store ptr %20, ptr @fp_unity_launcher_entry_set_progress_visible, align 8
  %21 = call ptr @dl_symbol(ptr noundef @.str.18)
  store ptr %21, ptr @fp_dbusmenu_menuitem_new, align 8
  %22 = call ptr @dl_symbol(ptr noundef @.str.19)
  store ptr %22, ptr @fp_dbusmenu_menuitem_property_set, align 8
  %23 = call ptr @dl_symbol(ptr noundef @.str.20)
  store ptr %23, ptr @fp_dbusmenu_menuitem_property_set_int, align 8
  %24 = call ptr @dl_symbol(ptr noundef @.str.21)
  store ptr %24, ptr @fp_dbusmenu_menuitem_property_get_int, align 8
  %25 = call ptr @dl_symbol(ptr noundef @.str.19)
  store ptr %25, ptr @fp_dbusmenu_menuitem_property_set, align 8
  %26 = call ptr @dl_symbol(ptr noundef @.str.22)
  store ptr %26, ptr @fp_dbusmenu_menuitem_child_append, align 8
  %27 = call ptr @dl_symbol(ptr noundef @.str.23)
  store ptr %27, ptr @fp_dbusmenu_menuitem_child_delete, align 8
  %28 = call ptr @dl_symbol(ptr noundef @.str.24)
  store ptr %28, ptr @fp_dbusmenu_menuitem_take_children, align 8
  %29 = call ptr @dl_symbol(ptr noundef @.str.25)
  store ptr %29, ptr @fp_dbusmenu_menuitem_foreach, align 8
  %30 = call ptr @dl_symbol(ptr noundef @.str.26)
  store ptr %30, ptr @fp_unity_launcher_entry_set_quicklist, align 8
  %31 = call ptr @dl_symbol(ptr noundef @.str.27)
  store ptr %31, ptr @fp_unity_launcher_entry_get_quicklist, align 8
  br label %35

32:                                               ; preds = %11
  %33 = load ptr, ptr @unity_libhandle, align 8
  %34 = call i32 @dlclose(ptr noundef %33) #7
  store ptr null, ptr @unity_libhandle, align 8
  store i32 0, ptr %1, align 4
  br label %36

35:                                               ; preds = %14
  store i32 1, ptr %1, align 4
  br label %36

36:                                               ; preds = %35, %32, %9
  %37 = load i32, ptr %1, align 4
  ret i32 %37
}