; Function Attrs: nounwind uwtable
define internal fastcc range(i32 0, 2) i32 @unity_load() unnamed_addr #0 {
  %1 = call ptr @dlopen(ptr noundef nonnull @.str.10, i32 noundef 1) #5
  store ptr %1, ptr @unity_libhandle, align 8
  %2 = icmp eq ptr %1, null
  br i1 %2, label %3, label %6

3:                                                ; preds = %0
  %4 = call ptr @dlopen(ptr noundef nonnull @.str.11, i32 noundef 1) #5
  store ptr %4, ptr @unity_libhandle, align 8
  %5 = icmp eq ptr %4, null
  br i1 %5, label %63, label %6

6:                                                ; preds = %3, %0
  %7 = call i32 @_setjmp(ptr noundef nonnull @j) #6
  %8 = icmp eq i32 %7, 0
  %9 = load ptr, ptr @unity_libhandle, align 8
  br i1 %8, label %10, label %61

10:                                               ; preds = %6
  %11 = call ptr @dlsym(ptr noundef %9, ptr noundef nonnull @.str.12) #5
  %.not.i = icmp eq ptr %11, null
  br i1 %.not.i, label %12, label %dl_symbol.exit

12:                                               ; preds = %10
  call void @longjmp(ptr noundef nonnull @j, i32 noundef 1) #7
  unreachable

dl_symbol.exit:                                   ; preds = %10
  store ptr %11, ptr @fp_unity_launcher_entry_get_for_desktop_file, align 8
  %13 = load ptr, ptr @unity_libhandle, align 8
  %14 = call ptr @dlsym(ptr noundef %13, ptr noundef nonnull @.str.13) #5
  %.not.i1 = icmp eq ptr %14, null
  br i1 %.not.i1, label %15, label %dl_symbol.exit2

15:                                               ; preds = %dl_symbol.exit
  call void @longjmp(ptr noundef nonnull @j, i32 noundef 1) #7
  unreachable

dl_symbol.exit2:                                  ; preds = %dl_symbol.exit
  store ptr %14, ptr @fp_unity_launcher_entry_set_count, align 8
  %16 = load ptr, ptr @unity_libhandle, align 8
  %17 = call ptr @dlsym(ptr noundef %16, ptr noundef nonnull @.str.14) #5
  %.not.i3 = icmp eq ptr %17, null
  br i1 %.not.i3, label %18, label %dl_symbol.exit4

18:                                               ; preds = %dl_symbol.exit2
  call void @longjmp(ptr noundef nonnull @j, i32 noundef 1) #7
  unreachable

dl_symbol.exit4:                                  ; preds = %dl_symbol.exit2
  store ptr %17, ptr @fp_unity_launcher_entry_set_count_visible, align 8
  %19 = load ptr, ptr @unity_libhandle, align 8
  %20 = call ptr @dlsym(ptr noundef %19, ptr noundef nonnull @.str.15) #5
  %.not.i5 = icmp eq ptr %20, null
  br i1 %.not.i5, label %21, label %dl_symbol.exit6

21:                                               ; preds = %dl_symbol.exit4
  call void @longjmp(ptr noundef nonnull @j, i32 noundef 1) #7
  unreachable

dl_symbol.exit6:                                  ; preds = %dl_symbol.exit4
  store ptr %20, ptr @fp_unity_launcher_entry_set_urgent, align 8
  %22 = load ptr, ptr @unity_libhandle, align 8
  %23 = call ptr @dlsym(ptr noundef %22, ptr noundef nonnull @.str.16) #5
  %.not.i7 = icmp eq ptr %23, null
  br i1 %.not.i7, label %24, label %dl_symbol.exit8

24:                                               ; preds = %dl_symbol.exit6
  call void @longjmp(ptr noundef nonnull @j, i32 noundef 1) #7
  unreachable

dl_symbol.exit8:                                  ; preds = %dl_symbol.exit6
  store ptr %23, ptr @fp_unity_launcher_entry_set_progress, align 8
  %25 = load ptr, ptr @unity_libhandle, align 8
  %26 = call ptr @dlsym(ptr noundef %25, ptr noundef nonnull @.str.17) #5
  %.not.i9 = icmp eq ptr %26, null
  br i1 %.not.i9, label %27, label %dl_symbol.exit10

27:                                               ; preds = %dl_symbol.exit8
  call void @longjmp(ptr noundef nonnull @j, i32 noundef 1) #7
  unreachable

dl_symbol.exit10:                                 ; preds = %dl_symbol.exit8
  store ptr %26, ptr @fp_unity_launcher_entry_set_progress_visible, align 8
  %28 = load ptr, ptr @unity_libhandle, align 8
  %29 = call ptr @dlsym(ptr noundef %28, ptr noundef nonnull @.str.18) #5
  %.not.i11 = icmp eq ptr %29, null
  br i1 %.not.i11, label %30, label %dl_symbol.exit12

30:                                               ; preds = %dl_symbol.exit10
  call void @longjmp(ptr noundef nonnull @j, i32 noundef 1) #7
  unreachable

dl_symbol.exit12:                                 ; preds = %dl_symbol.exit10
  store ptr %29, ptr @fp_dbusmenu_menuitem_new, align 8
  %31 = load ptr, ptr @unity_libhandle, align 8
  %32 = call ptr @dlsym(ptr noundef %31, ptr noundef nonnull @.str.19) #5
  %.not.i13 = icmp eq ptr %32, null
  br i1 %.not.i13, label %33, label %dl_symbol.exit14

33:                                               ; preds = %dl_symbol.exit12
  call void @longjmp(ptr noundef nonnull @j, i32 noundef 1) #7
  unreachable

dl_symbol.exit14:                                 ; preds = %dl_symbol.exit12
  store ptr %32, ptr @fp_dbusmenu_menuitem_property_set, align 8
  %34 = load ptr, ptr @unity_libhandle, align 8
  %35 = call ptr @dlsym(ptr noundef %34, ptr noundef nonnull @.str.20) #5
  %.not.i15 = icmp eq ptr %35, null
  br i1 %.not.i15, label %36, label %dl_symbol.exit16

36:                                               ; preds = %dl_symbol.exit14
  call void @longjmp(ptr noundef nonnull @j, i32 noundef 1) #7
  unreachable

dl_symbol.exit16:                                 ; preds = %dl_symbol.exit14
  store ptr %35, ptr @fp_dbusmenu_menuitem_property_set_int, align 8
  %37 = load ptr, ptr @unity_libhandle, align 8
  %38 = call ptr @dlsym(ptr noundef %37, ptr noundef nonnull @.str.21) #5
  %.not.i17 = icmp eq ptr %38, null
  br i1 %.not.i17, label %39, label %dl_symbol.exit18

39:                                               ; preds = %dl_symbol.exit16
  call void @longjmp(ptr noundef nonnull @j, i32 noundef 1) #7
  unreachable

dl_symbol.exit18:                                 ; preds = %dl_symbol.exit16
  store ptr %38, ptr @fp_dbusmenu_menuitem_property_get_int, align 8
  %40 = load ptr, ptr @unity_libhandle, align 8
  %41 = call ptr @dlsym(ptr noundef %40, ptr noundef nonnull @.str.19) #5
  %.not.i19 = icmp eq ptr %41, null
  br i1 %.not.i19, label %42, label %dl_symbol.exit20

42:                                               ; preds = %dl_symbol.exit18
  call void @longjmp(ptr noundef nonnull @j, i32 noundef 1) #7
  unreachable

dl_symbol.exit20:                                 ; preds = %dl_symbol.exit18
  store ptr %41, ptr @fp_dbusmenu_menuitem_property_set, align 8
  %43 = load ptr, ptr @unity_libhandle, align 8
  %44 = call ptr @dlsym(ptr noundef %43, ptr noundef nonnull @.str.22) #5
  %.not.i21 = icmp eq ptr %44, null
  br i1 %.not.i21, label %45, label %dl_symbol.exit22

45:                                               ; preds = %dl_symbol.exit20
  call void @longjmp(ptr noundef nonnull @j, i32 noundef 1) #7
  unreachable

dl_symbol.exit22:                                 ; preds = %dl_symbol.exit20
  store ptr %44, ptr @fp_dbusmenu_menuitem_child_append, align 8
  %46 = load ptr, ptr @unity_libhandle, align 8
  %47 = call ptr @dlsym(ptr noundef %46, ptr noundef nonnull @.str.23) #5
  %.not.i23 = icmp eq ptr %47, null
  br i1 %.not.i23, label %48, label %dl_symbol.exit24

48:                                               ; preds = %dl_symbol.exit22
  call void @longjmp(ptr noundef nonnull @j, i32 noundef 1) #7
  unreachable

dl_symbol.exit24:                                 ; preds = %dl_symbol.exit22
  store ptr %47, ptr @fp_dbusmenu_menuitem_child_delete, align 8
  %49 = load ptr, ptr @unity_libhandle, align 8
  %50 = call ptr @dlsym(ptr noundef %49, ptr noundef nonnull @.str.24) #5
  %.not.i25 = icmp eq ptr %50, null
  br i1 %.not.i25, label %51, label %dl_symbol.exit26

51:                                               ; preds = %dl_symbol.exit24
  call void @longjmp(ptr noundef nonnull @j, i32 noundef 1) #7
  unreachable

dl_symbol.exit26:                                 ; preds = %dl_symbol.exit24
  store ptr %50, ptr @fp_dbusmenu_menuitem_take_children, align 8
  %52 = load ptr, ptr @unity_libhandle, align 8
  %53 = call ptr @dlsym(ptr noundef %52, ptr noundef nonnull @.str.25) #5
  %.not.i27 = icmp eq ptr %53, null
  br i1 %.not.i27, label %54, label %dl_symbol.exit28

54:                                               ; preds = %dl_symbol.exit26
  call void @longjmp(ptr noundef nonnull @j, i32 noundef 1) #7
  unreachable

dl_symbol.exit28:                                 ; preds = %dl_symbol.exit26
  store ptr %53, ptr @fp_dbusmenu_menuitem_foreach, align 8
  %55 = load ptr, ptr @unity_libhandle, align 8
  %56 = call ptr @dlsym(ptr noundef %55, ptr noundef nonnull @.str.26) #5
  %.not.i29 = icmp eq ptr %56, null
  br i1 %.not.i29, label %57, label %dl_symbol.exit30

57:                                               ; preds = %dl_symbol.exit28
  call void @longjmp(ptr noundef nonnull @j, i32 noundef 1) #7
  unreachable

dl_symbol.exit30:                                 ; preds = %dl_symbol.exit28
  store ptr %56, ptr @fp_unity_launcher_entry_set_quicklist, align 8
  %58 = load ptr, ptr @unity_libhandle, align 8
  %59 = call ptr @dlsym(ptr noundef %58, ptr noundef nonnull @.str.27) #5
  %.not.i31 = icmp eq ptr %59, null
  br i1 %.not.i31, label %60, label %dl_symbol.exit32

60:                                               ; preds = %dl_symbol.exit30
  call void @longjmp(ptr noundef nonnull @j, i32 noundef 1) #7
  unreachable

dl_symbol.exit32:                                 ; preds = %dl_symbol.exit30
  store ptr %59, ptr @fp_unity_launcher_entry_get_quicklist, align 8
  br label %63

61:                                               ; preds = %6
  %62 = call i32 @dlclose(ptr noundef %9) #5
  store ptr null, ptr @unity_libhandle, align 8
  br label %63

63:                                               ; preds = %3, %dl_symbol.exit32, %61
  %.0 = phi i32 [ 1, %dl_symbol.exit32 ], [ 0, %61 ], [ 0, %3 ]
  ret i32 %.0
}